target datalayout = "e-m:e-p270:32:32-p271:32:32-p272:64:64-i64:64-i128:128-f80:128-n8:16:32:64-S128"
target triple = "x86_64-unknown-linux-gnu"

%struct.clientBufferLimitsConfig = type { i64, i64, i64 }
%struct.redisServer = type { i32, i64, ptr, ptr, ptr, i32, i32, i32, i32, i32, ptr, ptr, ptr, ptr, ptr, ptr, i32, i32, i64, i32, i32, i32, i32, ptr, i32, i32, [41 x i8], i32, i64, i32, i32, i32, ptr, ptr, i32, i32, i64, ptr, ptr, ptr, ptr, [2 x i32], i32, i32, i32, i32, i32, [16 x ptr], i32, ptr, ptr, i32, [8 x %struct.connListener], i32, %struct.connListener, ptr, ptr, ptr, ptr, ptr, ptr, ptr, ptr, ptr, ptr, i32, ptr, i32, ptr, [3 x %struct.pause_event], [256 x i8], ptr, i64, i32, i32, i32, i32, i64, i32, i32, i32, i32, i32, i64, i64, i64, i64, i64, i64, i64, i64, i64, double, i64, i64, i64, i64, i64, i64, i64, i64, i64, i64, i64, i64, i64, i64, i64, i64, i64, i64, i64, i64, double, i64, i64, i64, i64, i64, ptr, i64, i64, i64, %struct.malloc_stats, i64, i64, i64, i64, i64, i64, i64, i64, i64, i64, i64, i64, double, [4 x i64], i64, i64, i64, i64, i64, i64, i64, i64, i64, i64, [7 x %struct.anon], i64, i64, i64, i64, i64, i64, [4 x %struct.durationStats], i32, i32, i32, i32, i32, i32, i32, i32, i32, i32, i64, i32, i32, i32, i32, i64, i64, i32, i32, i32, i32, i32, ptr, [3 x %struct.clientBufferLimitsConfig], i32, i32, ptr, i32, i32, i32, i32, ptr, ptr, i32, i32, i64, i64, i64, i64, i64, i32, i32, ptr, i32, i32, i64, i64, i64, i64, i64, i32, i32, i64, i32, i32, i32, i32, i32, i32, i32, i32, ptr, i32, i64, i64, i64, i64, ptr, i32, ptr, i32, i32, i32, i64, i64, i64, i64, i32, i32, i32, i32, i32, i32, ptr, i32, i32, ptr, i32, i32, i32, [2 x i32], i32, %struct.redisOpArray, i32, ptr, i32, ptr, i32, i32, i32, i32, i32, i32, i32, [41 x i8], [41 x i8], i64, i64, i64, i64, i32, i32, ptr, i64, i64, i64, i32, i32, i32, i32, i32, i32, i32, i64, ptr, ptr, ptr, ptr, i32, i32, ptr, ptr, i32, i32, i64, i64, i64, ptr, i32, ptr, i64, i32, i32, i32, i64, i32, i32, i32, i32, ptr, i32, i32, [41 x i8], i64, i32, ptr, i32, i32, i64, i64, i32, i32, i32, i32, i32, i64, [3 x i32], i32, i32, i32, [9 x i32], ptr, ptr, i32, i64, ptr, ptr, i32, i32, i32, i32, i64, i64, i64, i64, i64, i64, i64, i64, i64, i64, i32, i32, i64, i64, i32, i64, i64, i64, i64, i64, ptr, ptr, i32, ptr, i32, i32, i32, i64, i64, ptr, ptr, i32, i32, i32, i32, i32, ptr, ptr, ptr, i32, i32, i32, i32, i32, i32, i32, i64, i32, i64, i32, i32, i32, i32, i32, i32, i32, i64, ptr, ptr, i64, ptr, i32, %struct.aclInfo, i32, i64, i32, i32, i32, %struct.redisTLSContextConfig, ptr, ptr, ptr, ptr, ptr, i64, i32, ptr, i32, i32, i32, i64, i32, ptr }
%struct.connListener = type { [16 x i32], i32, ptr, i32, i32, ptr, ptr }
%struct.pause_event = type { i32, i64 }
%struct.malloc_stats = type { i64, i64, i64, i64, i64 }
%struct.anon = type { i64, i64, [16 x i64], i32 }
%struct.durationStats = type { i64, i64, i64 }
%struct.redisOpArray = type { ptr, i32, i32 }
%struct.aclInfo = type { i64, i64, i64, i64 }
%struct.redisTLSContextConfig = type { ptr, ptr, ptr, ptr, ptr, ptr, ptr, ptr, ptr, ptr, ptr, ptr, i32, i32, i32, i32 }

@configOOMScoreAdjValuesDefaults = dso_local global [3 x i32] [i32 0, i32 200, i32 800], align 4
@server = external global %struct.redisServer, align 8
@.str.105 = private unnamed_addr constant [2 x i8] c" \00", align 1
@.str.116 = private unnamed_addr constant [3 x i8] c"%d\00", align 1

; Function Attrs: nounwind uwtable
define dso_local void @rewriteConfigOOMScoreAdjValuesOption(ptr noundef %config, ptr noundef %name, ptr noundef %state) #0 {
entry:
  %config.addr = alloca ptr, align 8
  %name.addr = alloca ptr, align 8
  %state.addr = alloca ptr, align 8
  %force = alloca i32, align 4
  %j = alloca i32, align 4
  %line = alloca ptr, align 8
  store ptr %config, ptr %config.addr, align 8
  store ptr %name, ptr %name.addr, align 8
  store ptr %state, ptr %state.addr, align 8
  store i32 0, ptr %force, align 4
  %0 = load ptr, ptr %name.addr, align 8
  %call = call ptr @sdsnew(ptr noundef %0)
  store ptr %call, ptr %line, align 8
  %1 = load ptr, ptr %line, align 8
  %call1 = call ptr @sdscatlen(ptr noundef %1, ptr noundef @.str.105, i64 noundef 1)
  store ptr %call1, ptr %line, align 8
  store i32 0, ptr %j, align 4
  br label %for.cond

for.cond:                                         ; preds = %for.inc, %entry
  %2 = load i32, ptr %j, align 4
  %cmp = icmp slt i32 %2, 3
  br i1 %cmp, label %for.body, label %for.end

for.body:                                         ; preds = %for.cond
  %3 = load i32, ptr %j, align 4
  %idxprom = sext i32 %3 to i64
  %arrayidx = getelementptr inbounds [3 x i32], ptr getelementptr inbounds (%struct.redisServer, ptr @server, i32 0, i32 322), i64 0, i64 %idxprom
  %4 = load i32, ptr %arrayidx, align 4
  %5 = load i32, ptr %j, align 4
  %idxprom2 = sext i32 %5 to i64
  %arrayidx3 = getelementptr inbounds [3 x i32], ptr @configOOMScoreAdjValuesDefaults, i64 0, i64 %idxprom2
  %6 = load i32, ptr %arrayidx3, align 4
  %cmp4 = icmp ne i32 %4, %6
  br i1 %cmp4, label %if.then, label %if.end

if.then:                                          ; preds = %for.body
  store i32 1, ptr %force, align 4
  br label %if.end

if.end:                                           ; preds = %if.then, %for.body
  %7 = load ptr, ptr %line, align 8
  %8 = load i32, ptr %j, align 4
  %idxprom5 = sext i32 %8 to i64
  %arrayidx6 = getelementptr inbounds [3 x i32], ptr getelementptr inbounds (%struct.redisServer, ptr @server, i32 0, i32 322), i64 0, i64 %idxprom5
  %9 = load i32, ptr %arrayidx6, align 4
  %call7 = call ptr (ptr, ptr, ...) @sdscatprintf(ptr noundef %7, ptr noundef @.str.116, i32 noundef %9)
  store ptr %call7, ptr %line, align 8
  %10 = load i32, ptr %j, align 4
  %add = add nsw i32 %10, 1
  %cmp8 = icmp ne i32 %add, 3
  br i1 %cmp8, label %if.then9, label %if.end11

if.then9:                                         ; preds = %if.end
  %11 = load ptr, ptr %line, align 8
  %call10 = call ptr @sdscatlen(ptr noundef %11, ptr noundef @.str.105, i64 noundef 1)
  store ptr %call10, ptr %line, align 8
  br label %if.end11

if.end11:                                         ; preds = %if.then9, %if.end
  br label %for.inc

for.inc:                                          ; preds = %if.end11
  %12 = load i32, ptr %j, align 4
  %inc = add nsw i32 %12, 1
  store i32 %inc, ptr %j, align 4
  br label %for.cond, !llvm.loop !34

for.end:                                          ; preds = %for.cond
  %13 = load ptr, ptr %state.addr, align 8
  %14 = load ptr, ptr %name.addr, align 8
  %15 = load ptr, ptr %line, align 8
  %16 = load i32, ptr %force, align 4
  %call12 = call i32 @rewriteConfigRewriteLine(ptr noundef %13, ptr noundef %14, ptr noundef %15, i32 noundef %16)
  ret void
}