; Function Attrs: nounwind uwtable
define dso_local void @rewriteConfigOOMScoreAdjValuesOption(ptr nocapture readnone %config, ptr noundef %name, ptr nocapture noundef %state) #2 {
entry:
  %call = tail call ptr @sdsnew(ptr noundef %name) #24
  br label %for.body

for.body:                                         ; preds = %for.body, %entry
  %call7.sink = phi ptr [ %call, %entry ], [ %call7, %for.body ]
  %indvars.iv = phi i64 [ 0, %entry ], [ %indvars.iv.next, %for.body ]
  %force.010 = phi i32 [ 0, %entry ], [ %spec.select, %for.body ]
  %call10 = tail call ptr @sdscatlen(ptr noundef %call7.sink, ptr noundef nonnull @.str.105, i64 noundef 1) #24
  %arrayidx = getelementptr inbounds %struct.redisServer, ptr @server, i64 0, i32 322, i64 %indvars.iv
  %0 = load i32, ptr %arrayidx, align 4
  %arrayidx3 = getelementptr inbounds [3 x i32], ptr @configOOMScoreAdjValuesDefaults, i64 0, i64 %indvars.iv
  %1 = load i32, ptr %arrayidx3, align 4
  %cmp4.not = icmp eq i32 %0, %1
  %spec.select = select i1 %cmp4.not, i32 %force.010, i32 1
  %call7 = tail call ptr (ptr, ptr, ...) @sdscatprintf(ptr noundef %call10, ptr noundef nonnull @.str.116, i32 noundef %0) #24
  %indvars.iv.next = add nuw nsw i64 %indvars.iv, 1
  %cmp8.not = icmp eq i64 %indvars.iv.next, 3
  br i1 %cmp8.not, label %for.end, label %for.body

for.end:                                          ; preds = %for.body
  %call12 = tail call i32 @rewriteConfigRewriteLine(ptr noundef %state, ptr noundef %name, ptr noundef %call7, i32 noundef %spec.select), !range !30
  ret void
}